target datalayout = "e-m:e-p270:32:32-p271:32:32-p272:64:64-i64:64-i128:128-f80:128-n8:16:32:64-S128"
target triple = "x86_64-pc-linux-gnu"

%"class.icu_77::DateTimeMatcher" = type { ptr, %"class.icu_77::PtnSkeleton" }
%"class.icu_77::PtnSkeleton" = type <{ ptr, [16 x i32], %"class.icu_77::SkeletonFields", %"class.icu_77::SkeletonFields", i8, [7 x i8] }>
%"class.icu_77::SkeletonFields" = type { [16 x i8], [16 x i8] }

; Function Attrs: mustprogress nounwind uwtable
define noundef i32 @_ZNK6icu_7715DateTimeMatcher12getFieldMaskEv(ptr noundef nonnull align 8 dereferenceable(152) %0) #0 align 2 {
  %2 = alloca ptr, align 8
  %3 = alloca i32, align 4
  %4 = alloca i32, align 4
  store ptr %0, ptr %2, align 8, !tbaa !71
  %5 = load ptr, ptr %2, align 8
  call void @llvm.lifetime.start.p0(i64 4, ptr %3) #13
  store i32 0, ptr %3, align 4, !tbaa !14
  call void @llvm.lifetime.start.p0(i64 4, ptr %4) #13
  store i32 0, ptr %4, align 4, !tbaa !14
  br label %6

6:                                                ; preds = %24, %1
  %7 = load i32, ptr %4, align 4, !tbaa !14
  %8 = icmp slt i32 %7, 16
  br i1 %8, label %10, label %9

9:                                                ; preds = %6
  call void @llvm.lifetime.end.p0(i64 4, ptr %4) #13
  br label %27

10:                                               ; preds = %6
  %11 = getelementptr inbounds nuw %"class.icu_77::DateTimeMatcher", ptr %5, i32 0, i32 1
  %12 = getelementptr inbounds nuw %"class.icu_77::PtnSkeleton", ptr %11, i32 0, i32 1
  %13 = load i32, ptr %4, align 4, !tbaa !14
  %14 = sext i32 %13 to i64
  %15 = getelementptr inbounds [16 x i32], ptr %12, i64 0, i64 %14
  %16 = load i32, ptr %15, align 4, !tbaa !14
  %17 = icmp ne i32 %16, 0
  br i1 %17, label %18, label %23

18:                                               ; preds = %10
  %19 = load i32, ptr %4, align 4, !tbaa !14
  %20 = shl i32 1, %19
  %21 = load i32, ptr %3, align 4, !tbaa !14
  %22 = or i32 %21, %20
  store i32 %22, ptr %3, align 4, !tbaa !14
  br label %23

23:                                               ; preds = %18, %10
  br label %24

24:                                               ; preds = %23
  %25 = load i32, ptr %4, align 4, !tbaa !14
  %26 = add nsw i32 %25, 1
  store i32 %26, ptr %4, align 4, !tbaa !14
  br label %6, !llvm.loop !206

27:                                               ; preds = %9
  %28 = load i32, ptr %3, align 4, !tbaa !14
  call void @llvm.lifetime.end.p0(i64 4, ptr %3) #13
  ret i32 %28
}