; Function Attrs: mustprogress nofree norecurse nosync nounwind willreturn memory(argmem: read) uwtable
define noundef i32 @_ZNK6icu_7715DateTimeMatcher12getFieldMaskEv(ptr noundef nonnull readonly align 8 captures(none) dereferenceable(152) %0) local_unnamed_addr #18 align 2 {
  %2 = getelementptr inbounds nuw i8, ptr %0, i64 16
  br label %4

3:                                                ; preds = %4
  ret i32 %.1

4:                                                ; preds = %1, %4
  %indvars.iv = phi i64 [ 0, %1 ], [ %indvars.iv.next, %4 ]
  %.067 = phi i32 [ 0, %1 ], [ %.1, %4 ]
  %5 = getelementptr inbounds nuw [16 x i32], ptr %2, i64 0, i64 %indvars.iv
  %6 = load i32, ptr %5, align 4, !tbaa !12
  %.not = icmp eq i32 %6, 0
  %7 = trunc nuw nsw i64 %indvars.iv to i32
  %8 = shl nuw nsw i32 1, %7
  %9 = select i1 %.not, i32 0, i32 %8
  %.1 = or i32 %9, %.067
  %indvars.iv.next = add nuw nsw i64 %indvars.iv, 1
  %exitcond.not = icmp eq i64 %indvars.iv.next, 16
  br i1 %exitcond.not, label %3, label %4, !llvm.loop !135
}